; Function Attrs: nounwind uwtable
define range(i32 -1, 1) i32 @PGTYPESnumeric_copy(ptr noundef readonly captures(none) %0, ptr noundef captures(address_is_null) %1) local_unnamed_addr #0 {
  %3 = icmp eq ptr %1, null
  br i1 %3, label %alloc_var.exit.thread, label %4

4:                                                ; preds = %2
  %5 = getelementptr inbounds nuw i8, ptr %1, i64 24
  %6 = load ptr, ptr %5, align 8
  tail call void @free(ptr noundef %6) #14
  store i32 0, ptr %1, align 8
  %7 = getelementptr inbounds nuw i8, ptr %1, i64 4
  store i32 0, ptr %7, align 4
  %8 = getelementptr inbounds nuw i8, ptr %1, i64 16
  store i32 0, ptr %8, align 8
  tail call void @llvm.memset.p0.i64(ptr noundef nonnull align 8 dereferenceable(16) %5, i8 0, i64 16, i1 false)
  %9 = getelementptr inbounds nuw i8, ptr %0, i64 4
  %10 = load i32, ptr %9, align 4
  store i32 %10, ptr %7, align 4
  %11 = getelementptr inbounds nuw i8, ptr %0, i64 8
  %12 = load i32, ptr %11, align 8
  %13 = getelementptr inbounds nuw i8, ptr %1, i64 8
  store i32 %12, ptr %13, align 8
  %14 = getelementptr inbounds nuw i8, ptr %0, i64 12
  %15 = load i32, ptr %14, align 4
  %16 = getelementptr inbounds nuw i8, ptr %1, i64 12
  store i32 %15, ptr %16, align 4
  %17 = getelementptr inbounds nuw i8, ptr %0, i64 16
  %18 = load i32, ptr %17, align 8
  store i32 %18, ptr %8, align 8
  %19 = load i32, ptr %0, align 8
  %20 = add i32 %19, 1
  %21 = sext i32 %20 to i64
  %22 = tail call ptr @pgtypes_alloc(i64 noundef %21) #14
  store ptr %22, ptr %5, align 8
  %23 = icmp eq ptr %22, null
  br i1 %23, label %alloc_var.exit.thread, label %alloc_var.exit

alloc_var.exit:                                   ; preds = %4
  store i8 0, ptr %22, align 1
  %24 = load ptr, ptr %5, align 8
  %25 = getelementptr inbounds nuw i8, ptr %24, i64 1
  %26 = getelementptr inbounds nuw i8, ptr %1, i64 32
  store ptr %25, ptr %26, align 8
  store i32 %19, ptr %1, align 8
  %27 = load i32, ptr %0, align 8
  %28 = icmp sgt i32 %27, 0
  br i1 %28, label %.lr.ph, label %alloc_var.exit.thread

.lr.ph:                                           ; preds = %alloc_var.exit
  %29 = getelementptr inbounds nuw i8, ptr %0, i64 32
  br label %30

30:                                               ; preds = %.lr.ph, %30
  %indvars.iv = phi i64 [ 0, %.lr.ph ], [ %indvars.iv.next, %30 ]
  %31 = load ptr, ptr %29, align 8
  %32 = getelementptr inbounds nuw i8, ptr %31, i64 %indvars.iv
  %33 = load i8, ptr %32, align 1
  %34 = load ptr, ptr %26, align 8
  %35 = getelementptr inbounds nuw i8, ptr %34, i64 %indvars.iv
  store i8 %33, ptr %35, align 1
  %indvars.iv.next = add nuw nsw i64 %indvars.iv, 1
  %36 = load i32, ptr %0, align 8
  %37 = sext i32 %36 to i64
  %38 = icmp slt i64 %indvars.iv.next, %37
  br i1 %38, label %30, label %alloc_var.exit.thread, !llvm.loop !9

alloc_var.exit.thread:                            ; preds = %30, %alloc_var.exit, %4, %2
  %.019 = phi i32 [ -1, %2 ], [ -1, %4 ], [ 0, %alloc_var.exit ], [ 0, %30 ]
  ret i32 %.019
}